; Function Attrs: nofree nounwind uwtable
define range(i32 0, 2) i32 @Extra_UtilCheckFile(ptr noundef readonly captures(none) %0, ptr noundef readonly captures(none) %1) local_unnamed_addr #2 {
sub_0:
  %2 = load i8, ptr %1, align 1
  %.not = icmp eq i8 %2, 120
  br i1 %.not, label %sub_1, label %.tail

sub_1:                                            ; preds = %sub_0
  %3 = getelementptr inbounds nuw i8, ptr %1, i64 1
  %4 = load i8, ptr %3, align 1
  %5 = icmp eq i8 %4, 0
  %6 = select i1 %5, ptr @.str.4, ptr %1
  br label %.tail

.tail:                                            ; preds = %sub_0, %sub_1
  %spec.store.select = phi ptr [ %1, %sub_0 ], [ %6, %sub_1 ]
  %7 = tail call noalias ptr @fopen(ptr noundef %0, ptr noundef nonnull %spec.store.select)
  %8 = icmp ne ptr %7, null
  br i1 %8, label %9, label %11

9:                                                ; preds = %.tail
  %10 = tail call i32 @fclose(ptr noundef nonnull %7)
  br label %11

11:                                               ; preds = %9, %.tail
  %12 = zext i1 %8 to i32
  ret i32 %12
}